; Function Attrs: nounwind uwtable
define internal i64 @H5O__dtype_shared_size(ptr noundef %0, i1 noundef zeroext %1, ptr noundef %2) #0 {
  %4 = load i32, ptr %2, align 8
  %5 = add i32 %4, -3
  %switch = icmp ult i32 %5, -2
  %brmerge = or i1 %switch, %1
  br i1 %brmerge, label %13, label %6

6:                                                ; preds = %3
  %7 = tail call i64 @H5O__shared_size(ptr noundef %0, ptr noundef nonnull %2) #15
  %8 = icmp eq i64 %7, 0
  br i1 %8, label %9, label %20

9:                                                ; preds = %6
  %10 = load i64, ptr @H5E_OHDR_g, align 8
  %11 = load i64, ptr @H5E_CANTGET_g, align 8
  %12 = tail call i32 (ptr, ptr, i32, i64, i64, ptr, ...) @H5E_printf_stack(ptr noundef nonnull @.str.1, ptr noundef nonnull @__func__.H5O__dtype_shared_size, i32 noundef 167, i64 noundef %10, i64 noundef %11, ptr noundef nonnull @.str.68) #15
  br label %20

13:                                               ; preds = %3
  %14 = tail call fastcc i64 @H5O__dtype_size(ptr noundef nonnull %2)
  %15 = icmp eq i64 %14, 0
  br i1 %15, label %16, label %20

16:                                               ; preds = %13
  %17 = load i64, ptr @H5E_OHDR_g, align 8
  %18 = load i64, ptr @H5E_CANTGET_g, align 8
  %19 = tail call i32 (ptr, ptr, i32, i64, i64, ptr, ...) @H5E_printf_stack(ptr noundef nonnull @.str.1, ptr noundef nonnull @__func__.H5O__dtype_shared_size, i32 noundef 172, i64 noundef %17, i64 noundef %18, ptr noundef nonnull @.str.69) #15
  br label %20

20:                                               ; preds = %6, %13, %16, %9
  %.0 = phi i64 [ 0, %16 ], [ %14, %13 ], [ 0, %9 ], [ %7, %6 ]
  ret i64 %.0
}